target datalayout = "e-m:e-p270:32:32-p271:32:32-p272:64:64-i64:64-i128:128-f80:128-n8:16:32:64-S128"
target triple = "x86_64-pc-linux-gnu"

%struct.oidset = type { %struct.kh_oid_set }
%struct.kh_oid_set = type { i32, i32, i32, i32, ptr, ptr, ptr }
%struct.packed_git = type { %struct.hashmap_entry, ptr, %struct.list_head, ptr, i64, ptr, i64, i32, i64, %struct.oidset, i32, i64, i32, i32, i8, [32 x i8], ptr, ptr, ptr, i64, ptr, i64, ptr, [0 x i8] }
%struct.hashmap_entry = type { ptr, i32 }
%struct.list_head = type { ptr, ptr }

@cruft = internal global i32 0, align 4
@.str.139 = private unnamed_addr constant [1 x i8] zeroinitializer, align 1
@.str.190 = private unnamed_addr constant [34 x i8] c"could not load cruft pack .mtimes\00", align 1

; Function Attrs: nounwind uwtable
define internal i32 @add_object_in_unpacked_pack(ptr noundef %0, ptr noundef %1, i32 noundef %2, ptr noundef %3) #0 {
  %5 = alloca ptr, align 8
  %6 = alloca ptr, align 8
  %7 = alloca i32, align 4
  %8 = alloca ptr, align 8
  %9 = alloca i64, align 8
  %10 = alloca i64, align 8
  store ptr %0, ptr %5, align 8, !tbaa !190
  store ptr %1, ptr %6, align 8, !tbaa !15
  store i32 %2, ptr %7, align 4, !tbaa !27
  store ptr %3, ptr %8, align 8, !tbaa !134
  %11 = load i32, ptr @cruft, align 4, !tbaa !27
  %12 = icmp ne i32 %11, 0
  br i1 %12, label %13, label %44

13:                                               ; preds = %4
  call void @llvm.lifetime.start.p0(i64 8, ptr %9) #11
  call void @llvm.lifetime.start.p0(i64 8, ptr %10) #11
  %14 = load ptr, ptr %6, align 8, !tbaa !15
  %15 = getelementptr inbounds nuw %struct.packed_git, ptr %14, i32 0, i32 14
  %16 = load i8, ptr %15, align 8
  %17 = lshr i8 %16, 7
  %18 = zext i8 %17 to i32
  %19 = icmp ne i32 %18, 0
  br i1 %19, label %20, label %31

20:                                               ; preds = %13
  %21 = load ptr, ptr %6, align 8, !tbaa !15
  %22 = call i32 @load_pack_mtimes(ptr noundef %21)
  %23 = icmp slt i32 %22, 0
  br i1 %23, label %24, label %26

24:                                               ; preds = %20
  %25 = call ptr @_(ptr noundef @.str.190)
  call void (ptr, ...) @die(ptr noundef %25) #12
  unreachable

26:                                               ; preds = %20
  %27 = load ptr, ptr %6, align 8, !tbaa !15
  %28 = load i32, ptr %7, align 4, !tbaa !27
  %29 = call i32 @nth_packed_mtime(ptr noundef %27, i32 noundef %28)
  %30 = zext i32 %29 to i64
  store i64 %30, ptr %10, align 8, !tbaa !13
  br label %35

31:                                               ; preds = %13
  %32 = load ptr, ptr %6, align 8, !tbaa !15
  %33 = getelementptr inbounds nuw %struct.packed_git, ptr %32, i32 0, i32 11
  %34 = load i64, ptr %33, align 8, !tbaa !13
  store i64 %34, ptr %10, align 8, !tbaa !13
  br label %35

35:                                               ; preds = %31, %26
  %36 = load ptr, ptr %6, align 8, !tbaa !15
  %37 = load i32, ptr %7, align 4, !tbaa !27
  %38 = call i64 @nth_packed_object_offset(ptr noundef %36, i32 noundef %37)
  store i64 %38, ptr %9, align 8, !tbaa !13
  %39 = load ptr, ptr %5, align 8, !tbaa !190
  %40 = load ptr, ptr %6, align 8, !tbaa !15
  %41 = load i64, ptr %9, align 8, !tbaa !13
  %42 = load i64, ptr %10, align 8, !tbaa !13
  %43 = trunc i64 %42 to i32
  call void @add_cruft_object_entry(ptr noundef %39, i32 noundef 0, ptr noundef %40, i64 noundef %41, ptr noundef null, i32 noundef %43)
  call void @llvm.lifetime.end.p0(i64 8, ptr %10) #11
  call void @llvm.lifetime.end.p0(i64 8, ptr %9) #11
  br label %47

44:                                               ; preds = %4
  %45 = load ptr, ptr %5, align 8, !tbaa !190
  %46 = call i32 @add_object_entry(ptr noundef %45, i32 noundef 0, ptr noundef @.str.139, i32 noundef 0)
  br label %47

47:                                               ; preds = %44, %35
  ret i32 0
}