; Function Attrs: nounwind uwtable
define internal noundef i32 @add_object_in_unpacked_pack(ptr noundef %0, ptr noundef %1, i32 noundef %2, ptr readnone captures(none) %3) #0 {
  %5 = load i32, ptr @cruft, align 4, !tbaa !30
  %.not = icmp eq i32 %5, 0
  br i1 %.not, label %22, label %6

6:                                                ; preds = %4
  %7 = getelementptr inbounds nuw i8, ptr %1, i64 152
  %8 = load i8, ptr %7, align 8
  %.not11 = icmp sgt i8 %8, -1
  br i1 %.not11, label %16, label %9

9:                                                ; preds = %6
  %10 = tail call i32 @load_pack_mtimes(ptr noundef nonnull %1) #25
  %11 = icmp slt i32 %10, 0
  br i1 %11, label %12, label %14

12:                                               ; preds = %9
  %13 = tail call fastcc ptr @_(ptr noundef nonnull @.str.190)
  tail call void (ptr, ...) @die(ptr noundef %13) #26
  unreachable

14:                                               ; preds = %9
  %15 = tail call i32 @nth_packed_mtime(ptr noundef nonnull %1, i32 noundef %2) #25
  br label %20

16:                                               ; preds = %6
  %17 = getelementptr inbounds nuw i8, ptr %1, i64 136
  %18 = load i64, ptr %17, align 8, !tbaa !28
  %19 = trunc i64 %18 to i32
  br label %20

20:                                               ; preds = %16, %14
  %.0 = phi i32 [ %15, %14 ], [ %19, %16 ]
  %21 = tail call i64 @nth_packed_object_offset(ptr noundef nonnull %1, i32 noundef %2) #25
  tail call fastcc void @add_cruft_object_entry(ptr noundef %0, i32 noundef 0, ptr noundef nonnull %1, i64 noundef %21, ptr noundef null, i32 noundef %.0)
  br label %23

22:                                               ; preds = %4
  tail call fastcc void @add_object_entry(ptr noundef %0, i32 noundef 0, ptr noundef nonnull @.str.139, i32 noundef 0)
  br label %23

23:                                               ; preds = %22, %20
  ret i32 0
}